target datalayout = "e-m:e-p270:32:32-p271:32:32-p272:64:64-i64:64-i128:128-f80:128-n8:16:32:64-S128"
target triple = "x86_64-pc-linux-gnu"

%struct.expert_field = type { i32, i32 }
%struct._asn1_ctx_t = type { i32, i32, i8, ptr, ptr, ptr, ptr, ptr, %struct.anon, %struct.anon.2, %struct.anon.3, ptr }
%struct.anon = type { i32, i8, i8, i8, ptr, ptr, i32, i32, ptr, ptr, ptr, %union.anon }
%union.anon = type { %struct.anon.0 }
%struct.anon.0 = type { ptr }
%struct.anon.2 = type { ptr, ptr, ptr }
%struct.anon.3 = type { i32, i8, ptr, i32, i32, ptr, ptr, ptr, %union.anon.4 }
%union.anon.4 = type { %struct.anon.5 }
%struct.anon.5 = type { ptr }

@.str.6 = private unnamed_addr constant [6 x i8] c" (%s)\00", align 1
@ett_p1_unknown_tokendata_type = internal global i32 0, align 4
@ei_p1_unknown_tokendata_type = internal global %struct.expert_field zeroinitializer, align 4
@p1_tokendata_dissector_table = internal global ptr null, align 8
@.str.1970 = private unnamed_addr constant [18 x i8] c"tokendata-type %d\00", align 1
@.str.1971 = private unnamed_addr constant [106 x i8] c"Dissector for tokendata-type %d not implemented.  Contact Wireshark developers if you want this supported\00", align 1

; Function Attrs: null_pointer_is_valid sspstrong uwtable
define internal i32 @dissect_p1_T_value(i1 noundef zeroext %0, ptr noundef %1, i32 noundef %2, ptr noundef %3, ptr noundef %4, i32 noundef %5) #0 {
  %7 = alloca i8, align 1
  %8 = alloca ptr, align 8
  %9 = alloca i32, align 4
  %10 = alloca ptr, align 8
  %11 = alloca ptr, align 8
  %12 = alloca i32, align 4
  %13 = alloca ptr, align 8
  %14 = alloca ptr, align 8
  %15 = zext i1 %0 to i8
  store i8 %15, ptr %7, align 1
  store ptr %1, ptr %8, align 8
  store i32 %2, ptr %9, align 4
  store ptr %3, ptr %10, align 8
  store ptr %4, ptr %11, align 8
  store i32 %5, ptr %12, align 4
  %16 = load ptr, ptr %11, align 8
  %17 = load ptr, ptr %10, align 8
  %18 = getelementptr inbounds nuw %struct._asn1_ctx_t, ptr %17, i32 0, i32 8
  %19 = getelementptr inbounds nuw %struct.anon, ptr %18, i32 0, i32 6
  %20 = load i32, ptr %19, align 8
  %21 = call ptr @val_to_str(i32 noundef %20, ptr noundef @p1_TokenDataType_vals, ptr noundef @.str.1970)
  call void (ptr, ptr, ...) @proto_item_append_text(ptr noundef %16, ptr noundef @.str.6, ptr noundef %21)
  %22 = load ptr, ptr @p1_tokendata_dissector_table, align 8
  %23 = load ptr, ptr %10, align 8
  %24 = getelementptr inbounds nuw %struct._asn1_ctx_t, ptr %23, i32 0, i32 8
  %25 = getelementptr inbounds nuw %struct.anon, ptr %24, i32 0, i32 6
  %26 = load i32, ptr %25, align 8
  %27 = load ptr, ptr %8, align 8
  %28 = load ptr, ptr %10, align 8
  %29 = getelementptr inbounds nuw %struct._asn1_ctx_t, ptr %28, i32 0, i32 3
  %30 = load ptr, ptr %29, align 8
  %31 = load ptr, ptr %11, align 8
  %32 = call i32 @dissector_try_uint(ptr noundef %22, i32 noundef %26, ptr noundef %27, ptr noundef %30, ptr noundef %31)
  %33 = icmp ne i32 %32, 0
  br i1 %33, label %34, label %37

34:                                               ; preds = %6
  %35 = load ptr, ptr %8, align 8
  %36 = call i32 @tvb_reported_length(ptr noundef %35)
  store i32 %36, ptr %9, align 4
  br label %58

37:                                               ; preds = %6
  call void @llvm.lifetime.start.p0(i64 8, ptr %13) #5
  call void @llvm.lifetime.start.p0(i64 8, ptr %14) #5
  %38 = load ptr, ptr %11, align 8
  %39 = load ptr, ptr %8, align 8
  %40 = load i32, ptr @ett_p1_unknown_tokendata_type, align 4
  %41 = load ptr, ptr %10, align 8
  %42 = getelementptr inbounds nuw %struct._asn1_ctx_t, ptr %41, i32 0, i32 8
  %43 = getelementptr inbounds nuw %struct.anon, ptr %42, i32 0, i32 6
  %44 = load i32, ptr %43, align 8
  %45 = call ptr (ptr, ptr, i32, i32, i32, ptr, ptr, ...) @proto_tree_add_subtree_format(ptr noundef %38, ptr noundef %39, i32 noundef 0, i32 noundef -1, i32 noundef %40, ptr noundef %13, ptr noundef @.str.1971, i32 noundef %44)
  store ptr %45, ptr %14, align 8
  %46 = load ptr, ptr %10, align 8
  %47 = getelementptr inbounds nuw %struct._asn1_ctx_t, ptr %46, i32 0, i32 3
  %48 = load ptr, ptr %47, align 8
  %49 = load ptr, ptr %8, align 8
  %50 = load i32, ptr %9, align 4
  %51 = load ptr, ptr %14, align 8
  %52 = call i32 @dissect_unknown_ber(ptr noundef %48, ptr noundef %49, i32 noundef %50, ptr noundef %51)
  store i32 %52, ptr %9, align 4
  %53 = load ptr, ptr %10, align 8
  %54 = getelementptr inbounds nuw %struct._asn1_ctx_t, ptr %53, i32 0, i32 3
  %55 = load ptr, ptr %54, align 8
  %56 = load ptr, ptr %13, align 8
  %57 = call ptr @expert_add_info(ptr noundef %55, ptr noundef %56, ptr noundef @ei_p1_unknown_tokendata_type)
  call void @llvm.lifetime.end.p0(i64 8, ptr %14) #5
  call void @llvm.lifetime.end.p0(i64 8, ptr %13) #5
  br label %58

58:                                               ; preds = %37, %34
  %59 = load i32, ptr %9, align 4
  ret i32 %59
}