; Function Attrs: null_pointer_is_valid sspstrong uwtable
define internal i32 @dissect_p1_T_value(i1 zeroext %0, ptr noundef %1, i32 noundef %2, ptr noundef readonly captures(none) %3, ptr noundef %4, i32 %5) #0 {
  %7 = alloca ptr, align 8
  %8 = getelementptr inbounds nuw i8, ptr %3, i64 80
  %9 = load i32, ptr %8, align 8
  %10 = tail call ptr @val_to_str(i32 noundef %9, ptr noundef nonnull @p1_TokenDataType_vals, ptr noundef nonnull @.str.1970)
  tail call void (ptr, ptr, ...) @proto_item_append_text(ptr noundef %4, ptr noundef nonnull @.str.6, ptr noundef %10)
  %11 = load ptr, ptr @p1_tokendata_dissector_table, align 8
  %12 = load i32, ptr %8, align 8
  %13 = getelementptr inbounds nuw i8, ptr %3, i64 16
  %14 = load ptr, ptr %13, align 8
  %15 = tail call i32 @dissector_try_uint(ptr noundef %11, i32 noundef %12, ptr noundef %1, ptr noundef %14, ptr noundef %4)
  %.not = icmp eq i32 %15, 0
  br i1 %.not, label %18, label %16

16:                                               ; preds = %6
  %17 = tail call i32 @tvb_reported_length(ptr noundef %1)
  br label %27

18:                                               ; preds = %6
  call void @llvm.lifetime.start.p0(i64 8, ptr nonnull %7) #5
  %19 = load i32, ptr @ett_p1_unknown_tokendata_type, align 4
  %20 = load i32, ptr %8, align 8
  %21 = call ptr (ptr, ptr, i32, i32, i32, ptr, ptr, ...) @proto_tree_add_subtree_format(ptr noundef %4, ptr noundef %1, i32 noundef 0, i32 noundef -1, i32 noundef %19, ptr noundef nonnull %7, ptr noundef nonnull @.str.1971, i32 noundef %20)
  %22 = load ptr, ptr %13, align 8
  %23 = call i32 @dissect_unknown_ber(ptr noundef %22, ptr noundef %1, i32 noundef %2, ptr noundef %21)
  %24 = load ptr, ptr %13, align 8
  %25 = load ptr, ptr %7, align 8
  %26 = call ptr @expert_add_info(ptr noundef %24, ptr noundef %25, ptr noundef nonnull @ei_p1_unknown_tokendata_type)
  call void @llvm.lifetime.end.p0(i64 8, ptr nonnull %7) #5
  br label %27

27:                                               ; preds = %18, %16
  %.0 = phi i32 [ %17, %16 ], [ %23, %18 ]
  ret i32 %.0
}